
7fcdb7907692cbd6ea87600ab11377b3:     file format elf32-i386


Disassembly of section .init:

080482f8 <.init>:
 80482f8:	53                   	push   %ebx
 80482f9:	83 ec 08             	sub    $0x8,%esp
 80482fc:	e8 9f 00 00 00       	call   80483a0 <__libc_start_main@plt+0x40>
 8048301:	81 c3 ff 2c 00 00    	add    $0x2cff,%ebx
 8048307:	8b 83 fc ff ff ff    	mov    -0x4(%ebx),%eax
 804830d:	85 c0                	test   %eax,%eax
 804830f:	74 05                	je     8048316 <printf@plt-0x1a>
 8048311:	e8 3a 00 00 00       	call   8048350 <__gmon_start__@plt>
 8048316:	83 c4 08             	add    $0x8,%esp
 8048319:	5b                   	pop    %ebx
 804831a:	c3                   	ret    

Disassembly of section .plt:

08048320 <printf@plt-0x10>:
 8048320:	ff 35 04 b0 04 08    	pushl  0x804b004
 8048326:	ff 25 08 b0 04 08    	jmp    *0x804b008
 804832c:	00 00                	add    %al,(%eax)
	...

08048330 <printf@plt>:
 8048330:	ff 25 0c b0 04 08    	jmp    *0x804b00c
 8048336:	68 00 00 00 00       	push   $0x0
 804833b:	e9 e0 ff ff ff       	jmp    8048320 <printf@plt-0x10>

08048340 <fflush@plt>:
 8048340:	ff 25 10 b0 04 08    	jmp    *0x804b010
 8048346:	68 08 00 00 00       	push   $0x8
 804834b:	e9 d0 ff ff ff       	jmp    8048320 <printf@plt-0x10>

08048350 <__gmon_start__@plt>:
 8048350:	ff 25 14 b0 04 08    	jmp    *0x804b014
 8048356:	68 10 00 00 00       	push   $0x10
 804835b:	e9 c0 ff ff ff       	jmp    8048320 <printf@plt-0x10>

08048360 <__libc_start_main@plt>:
 8048360:	ff 25 18 b0 04 08    	jmp    *0x804b018
 8048366:	68 18 00 00 00       	push   $0x18
 804836b:	e9 b0 ff ff ff       	jmp    8048320 <printf@plt-0x10>

Disassembly of section .text:

08048370 <main-0x360>:
 8048370:	31 ed                	xor    %ebp,%ebp
 8048372:	5e                   	pop    %esi
 8048373:	89 e1                	mov    %esp,%ecx
 8048375:	83 e4 f0             	and    $0xfffffff0,%esp
 8048378:	50                   	push   %eax
 8048379:	54                   	push   %esp
 804837a:	52                   	push   %edx
 804837b:	68 30 8f 04 08       	push   $0x8048f30
 8048380:	68 c0 8e 04 08       	push   $0x8048ec0
 8048385:	51                   	push   %ecx
 8048386:	56                   	push   %esi
 8048387:	68 d0 86 04 08       	push   $0x80486d0
 804838c:	e8 cf ff ff ff       	call   8048360 <__libc_start_main@plt>
 8048391:	f4                   	hlt    
 8048392:	66 90                	xchg   %ax,%ax
 8048394:	66 90                	xchg   %ax,%ax
 8048396:	66 90                	xchg   %ax,%ax
 8048398:	66 90                	xchg   %ax,%ax
 804839a:	66 90                	xchg   %ax,%ax
 804839c:	66 90                	xchg   %ax,%ax
 804839e:	66 90                	xchg   %ax,%ax
 80483a0:	8b 1c 24             	mov    (%esp),%ebx
 80483a3:	c3                   	ret    
 80483a4:	66 90                	xchg   %ax,%ax
 80483a6:	66 90                	xchg   %ax,%ax
 80483a8:	66 90                	xchg   %ax,%ax
 80483aa:	66 90                	xchg   %ax,%ax
 80483ac:	66 90                	xchg   %ax,%ax
 80483ae:	66 90                	xchg   %ax,%ax
 80483b0:	b8 4f b1 04 08       	mov    $0x804b14f,%eax
 80483b5:	2d 4c b1 04 08       	sub    $0x804b14c,%eax
 80483ba:	83 f8 06             	cmp    $0x6,%eax
 80483bd:	77 01                	ja     80483c0 <__libc_start_main@plt+0x60>
 80483bf:	c3                   	ret    
 80483c0:	b8 00 00 00 00       	mov    $0x0,%eax
 80483c5:	85 c0                	test   %eax,%eax
 80483c7:	74 f6                	je     80483bf <__libc_start_main@plt+0x5f>
 80483c9:	55                   	push   %ebp
 80483ca:	89 e5                	mov    %esp,%ebp
 80483cc:	83 ec 18             	sub    $0x18,%esp
 80483cf:	c7 04 24 4c b1 04 08 	movl   $0x804b14c,(%esp)
 80483d6:	ff d0                	call   *%eax
 80483d8:	c9                   	leave  
 80483d9:	c3                   	ret    
 80483da:	8d b6 00 00 00 00    	lea    0x0(%esi),%esi
 80483e0:	b8 4c b1 04 08       	mov    $0x804b14c,%eax
 80483e5:	2d 4c b1 04 08       	sub    $0x804b14c,%eax
 80483ea:	c1 f8 02             	sar    $0x2,%eax
 80483ed:	89 c2                	mov    %eax,%edx
 80483ef:	c1 ea 1f             	shr    $0x1f,%edx
 80483f2:	01 d0                	add    %edx,%eax
 80483f4:	d1 f8                	sar    %eax
 80483f6:	75 01                	jne    80483f9 <__libc_start_main@plt+0x99>
 80483f8:	c3                   	ret    
 80483f9:	ba 00 00 00 00       	mov    $0x0,%edx
 80483fe:	85 d2                	test   %edx,%edx
 8048400:	74 f6                	je     80483f8 <__libc_start_main@plt+0x98>
 8048402:	55                   	push   %ebp
 8048403:	89 e5                	mov    %esp,%ebp
 8048405:	83 ec 18             	sub    $0x18,%esp
 8048408:	89 44 24 04          	mov    %eax,0x4(%esp)
 804840c:	c7 04 24 4c b1 04 08 	movl   $0x804b14c,(%esp)
 8048413:	ff d2                	call   *%edx
 8048415:	c9                   	leave  
 8048416:	c3                   	ret    
 8048417:	89 f6                	mov    %esi,%esi
 8048419:	8d bc 27 00 00 00 00 	lea    0x0(%edi,%eiz,1),%edi
 8048420:	80 3d 64 b1 04 08 00 	cmpb   $0x0,0x804b164
 8048427:	75 13                	jne    804843c <__libc_start_main@plt+0xdc>
 8048429:	55                   	push   %ebp
 804842a:	89 e5                	mov    %esp,%ebp
 804842c:	83 ec 08             	sub    $0x8,%esp
 804842f:	e8 7c ff ff ff       	call   80483b0 <__libc_start_main@plt+0x50>
 8048434:	c6 05 64 b1 04 08 01 	movb   $0x1,0x804b164
 804843b:	c9                   	leave  
 804843c:	f3 c3                	repz ret 
 804843e:	66 90                	xchg   %ax,%ax
 8048440:	a1 10 af 04 08       	mov    0x804af10,%eax
 8048445:	85 c0                	test   %eax,%eax
 8048447:	74 1f                	je     8048468 <__libc_start_main@plt+0x108>
 8048449:	b8 00 00 00 00       	mov    $0x0,%eax
 804844e:	85 c0                	test   %eax,%eax
 8048450:	74 16                	je     8048468 <__libc_start_main@plt+0x108>
 8048452:	55                   	push   %ebp
 8048453:	89 e5                	mov    %esp,%ebp
 8048455:	83 ec 18             	sub    $0x18,%esp
 8048458:	c7 04 24 10 af 04 08 	movl   $0x804af10,(%esp)
 804845f:	ff d0                	call   *%eax
 8048461:	c9                   	leave  
 8048462:	e9 79 ff ff ff       	jmp    80483e0 <__libc_start_main@plt+0x80>
 8048467:	90                   	nop
 8048468:	e9 73 ff ff ff       	jmp    80483e0 <__libc_start_main@plt+0x80>
 804846d:	66 90                	xchg   %ax,%ax
 804846f:	90                   	nop
 8048470:	55                   	push   %ebp
 8048471:	89 e5                	mov    %esp,%ebp
 8048473:	83 ec 10             	sub    $0x10,%esp
 8048476:	8b 45 08             	mov    0x8(%ebp),%eax
 8048479:	89 45 f8             	mov    %eax,-0x8(%ebp)
 804847c:	89 c1                	mov    %eax,%ecx
 804847e:	83 e9 14             	sub    $0x14,%ecx
 8048481:	89 4d f4             	mov    %ecx,-0xc(%ebp)
 8048484:	89 45 f0             	mov    %eax,-0x10(%ebp)
 8048487:	0f 87 2e 02 00 00    	ja     80486bb <__libc_start_main@plt+0x35b>
 804848d:	8b 45 f0             	mov    -0x10(%ebp),%eax
 8048490:	8b 0c 85 50 8f 04 08 	mov    0x8048f50(,%eax,4),%ecx
 8048497:	ff e1                	jmp    *%ecx
 8048499:	0f be 05 24 b0 04 08 	movsbl 0x804b024,%eax
 80484a0:	0f be 0d 25 b0 04 08 	movsbl 0x804b025,%ecx
 80484a7:	31 c8                	xor    %ecx,%eax
 80484a9:	88 c2                	mov    %al,%dl
 80484ab:	88 55 ff             	mov    %dl,-0x1(%ebp)
 80484ae:	e9 0c 02 00 00       	jmp    80486bf <__libc_start_main@plt+0x35f>
 80484b3:	0f be 05 26 b0 04 08 	movsbl 0x804b026,%eax
 80484ba:	0f be 0d 27 b0 04 08 	movsbl 0x804b027,%ecx
 80484c1:	31 c8                	xor    %ecx,%eax
 80484c3:	88 c2                	mov    %al,%dl
 80484c5:	88 55 ff             	mov    %dl,-0x1(%ebp)
 80484c8:	e9 f2 01 00 00       	jmp    80486bf <__libc_start_main@plt+0x35f>
 80484cd:	0f be 05 28 b0 04 08 	movsbl 0x804b028,%eax
 80484d4:	0f be 0d 29 b0 04 08 	movsbl 0x804b029,%ecx
 80484db:	31 c8                	xor    %ecx,%eax
 80484dd:	88 c2                	mov    %al,%dl
 80484df:	88 55 ff             	mov    %dl,-0x1(%ebp)
 80484e2:	e9 d8 01 00 00       	jmp    80486bf <__libc_start_main@plt+0x35f>
 80484e7:	0f be 05 2a b0 04 08 	movsbl 0x804b02a,%eax
 80484ee:	0f be 0d 2b b0 04 08 	movsbl 0x804b02b,%ecx
 80484f5:	31 c8                	xor    %ecx,%eax
 80484f7:	88 c2                	mov    %al,%dl
 80484f9:	88 55 ff             	mov    %dl,-0x1(%ebp)
 80484fc:	e9 be 01 00 00       	jmp    80486bf <__libc_start_main@plt+0x35f>
 8048501:	0f be 05 2c b0 04 08 	movsbl 0x804b02c,%eax
 8048508:	0f be 0d 2d b0 04 08 	movsbl 0x804b02d,%ecx
 804850f:	31 c8                	xor    %ecx,%eax
 8048511:	88 c2                	mov    %al,%dl
 8048513:	88 55 ff             	mov    %dl,-0x1(%ebp)
 8048516:	e9 a4 01 00 00       	jmp    80486bf <__libc_start_main@plt+0x35f>
 804851b:	0f be 05 2e b0 04 08 	movsbl 0x804b02e,%eax
 8048522:	0f be 0d 2f b0 04 08 	movsbl 0x804b02f,%ecx
 8048529:	31 c8                	xor    %ecx,%eax
 804852b:	88 c2                	mov    %al,%dl
 804852d:	88 55 ff             	mov    %dl,-0x1(%ebp)
 8048530:	e9 8a 01 00 00       	jmp    80486bf <__libc_start_main@plt+0x35f>
 8048535:	0f be 05 30 b0 04 08 	movsbl 0x804b030,%eax
 804853c:	0f be 0d 31 b0 04 08 	movsbl 0x804b031,%ecx
 8048543:	31 c8                	xor    %ecx,%eax
 8048545:	88 c2                	mov    %al,%dl
 8048547:	88 55 ff             	mov    %dl,-0x1(%ebp)
 804854a:	e9 70 01 00 00       	jmp    80486bf <__libc_start_main@plt+0x35f>
 804854f:	0f be 05 32 b0 04 08 	movsbl 0x804b032,%eax
 8048556:	0f be 0d 33 b0 04 08 	movsbl 0x804b033,%ecx
 804855d:	31 c8                	xor    %ecx,%eax
 804855f:	88 c2                	mov    %al,%dl
 8048561:	88 55 ff             	mov    %dl,-0x1(%ebp)
 8048564:	e9 56 01 00 00       	jmp    80486bf <__libc_start_main@plt+0x35f>
 8048569:	0f be 05 34 b0 04 08 	movsbl 0x804b034,%eax
 8048570:	0f be 0d 35 b0 04 08 	movsbl 0x804b035,%ecx
 8048577:	31 c8                	xor    %ecx,%eax
 8048579:	88 c2                	mov    %al,%dl
 804857b:	88 55 ff             	mov    %dl,-0x1(%ebp)
 804857e:	e9 3c 01 00 00       	jmp    80486bf <__libc_start_main@plt+0x35f>
 8048583:	0f be 05 36 b0 04 08 	movsbl 0x804b036,%eax
 804858a:	0f be 0d 37 b0 04 08 	movsbl 0x804b037,%ecx
 8048591:	31 c8                	xor    %ecx,%eax
 8048593:	88 c2                	mov    %al,%dl
 8048595:	88 55 ff             	mov    %dl,-0x1(%ebp)
 8048598:	e9 22 01 00 00       	jmp    80486bf <__libc_start_main@plt+0x35f>
 804859d:	0f be 05 38 b0 04 08 	movsbl 0x804b038,%eax
 80485a4:	0f be 0d 39 b0 04 08 	movsbl 0x804b039,%ecx
 80485ab:	31 c8                	xor    %ecx,%eax
 80485ad:	88 c2                	mov    %al,%dl
 80485af:	88 55 ff             	mov    %dl,-0x1(%ebp)
 80485b2:	e9 08 01 00 00       	jmp    80486bf <__libc_start_main@plt+0x35f>
 80485b7:	0f be 05 3a b0 04 08 	movsbl 0x804b03a,%eax
 80485be:	0f be 0d 3b b0 04 08 	movsbl 0x804b03b,%ecx
 80485c5:	31 c8                	xor    %ecx,%eax
 80485c7:	88 c2                	mov    %al,%dl
 80485c9:	88 55 ff             	mov    %dl,-0x1(%ebp)
 80485cc:	e9 ee 00 00 00       	jmp    80486bf <__libc_start_main@plt+0x35f>
 80485d1:	0f be 05 3c b0 04 08 	movsbl 0x804b03c,%eax
 80485d8:	0f be 0d 3d b0 04 08 	movsbl 0x804b03d,%ecx
 80485df:	31 c8                	xor    %ecx,%eax
 80485e1:	88 c2                	mov    %al,%dl
 80485e3:	88 55 ff             	mov    %dl,-0x1(%ebp)
 80485e6:	e9 d4 00 00 00       	jmp    80486bf <__libc_start_main@plt+0x35f>
 80485eb:	0f be 05 3e b0 04 08 	movsbl 0x804b03e,%eax
 80485f2:	0f be 0d 3f b0 04 08 	movsbl 0x804b03f,%ecx
 80485f9:	31 c8                	xor    %ecx,%eax
 80485fb:	88 c2                	mov    %al,%dl
 80485fd:	88 55 ff             	mov    %dl,-0x1(%ebp)
 8048600:	e9 ba 00 00 00       	jmp    80486bf <__libc_start_main@plt+0x35f>
 8048605:	0f be 05 40 b0 04 08 	movsbl 0x804b040,%eax
 804860c:	0f be 0d 41 b0 04 08 	movsbl 0x804b041,%ecx
 8048613:	31 c8                	xor    %ecx,%eax
 8048615:	88 c2                	mov    %al,%dl
 8048617:	88 55 ff             	mov    %dl,-0x1(%ebp)
 804861a:	e9 a0 00 00 00       	jmp    80486bf <__libc_start_main@plt+0x35f>
 804861f:	0f be 05 42 b0 04 08 	movsbl 0x804b042,%eax
 8048626:	0f be 0d 43 b0 04 08 	movsbl 0x804b043,%ecx
 804862d:	31 c8                	xor    %ecx,%eax
 804862f:	88 c2                	mov    %al,%dl
 8048631:	88 55 ff             	mov    %dl,-0x1(%ebp)
 8048634:	e9 86 00 00 00       	jmp    80486bf <__libc_start_main@plt+0x35f>
 8048639:	0f be 05 44 b0 04 08 	movsbl 0x804b044,%eax
 8048640:	0f be 0d 45 b0 04 08 	movsbl 0x804b045,%ecx
 8048647:	31 c8                	xor    %ecx,%eax
 8048649:	88 c2                	mov    %al,%dl
 804864b:	88 55 ff             	mov    %dl,-0x1(%ebp)
 804864e:	e9 6c 00 00 00       	jmp    80486bf <__libc_start_main@plt+0x35f>
 8048653:	0f be 05 46 b0 04 08 	movsbl 0x804b046,%eax
 804865a:	0f be 0d 47 b0 04 08 	movsbl 0x804b047,%ecx
 8048661:	31 c8                	xor    %ecx,%eax
 8048663:	88 c2                	mov    %al,%dl
 8048665:	88 55 ff             	mov    %dl,-0x1(%ebp)
 8048668:	e9 52 00 00 00       	jmp    80486bf <__libc_start_main@plt+0x35f>
 804866d:	0f be 05 48 b0 04 08 	movsbl 0x804b048,%eax
 8048674:	0f be 0d 49 b0 04 08 	movsbl 0x804b049,%ecx
 804867b:	31 c8                	xor    %ecx,%eax
 804867d:	88 c2                	mov    %al,%dl
 804867f:	88 55 ff             	mov    %dl,-0x1(%ebp)
 8048682:	e9 38 00 00 00       	jmp    80486bf <__libc_start_main@plt+0x35f>
 8048687:	0f be 05 4a b0 04 08 	movsbl 0x804b04a,%eax
 804868e:	0f be 0d 4b b0 04 08 	movsbl 0x804b04b,%ecx
 8048695:	31 c8                	xor    %ecx,%eax
 8048697:	88 c2                	mov    %al,%dl
 8048699:	88 55 ff             	mov    %dl,-0x1(%ebp)
 804869c:	e9 1e 00 00 00       	jmp    80486bf <__libc_start_main@plt+0x35f>
 80486a1:	0f be 05 4c b0 04 08 	movsbl 0x804b04c,%eax
 80486a8:	0f be 0d 4d b0 04 08 	movsbl 0x804b04d,%ecx
 80486af:	31 c8                	xor    %ecx,%eax
 80486b1:	88 c2                	mov    %al,%dl
 80486b3:	88 55 ff             	mov    %dl,-0x1(%ebp)
 80486b6:	e9 04 00 00 00       	jmp    80486bf <__libc_start_main@plt+0x35f>
 80486bb:	c6 45 ff 00          	movb   $0x0,-0x1(%ebp)
 80486bf:	0f be 45 ff          	movsbl -0x1(%ebp),%eax
 80486c3:	83 c4 10             	add    $0x10,%esp
 80486c6:	5d                   	pop    %ebp
 80486c7:	c3                   	ret    
 80486c8:	0f 1f 84 00 00 00 00 	nopl   0x0(%eax,%eax,1)
 80486cf:	00 

080486d0 <main>:
 80486d0:	55                   	push   %ebp
 80486d1:	89 e5                	mov    %esp,%ebp
 80486d3:	81 ec 28 01 00 00    	sub    $0x128,%esp
 80486d9:	c7 45 fc 00 00 00 00 	movl   $0x0,-0x4(%ebp)
 80486e0:	a1 50 b0 04 08       	mov    0x804b050,%eax
 80486e5:	89 04 24             	mov    %eax,(%esp)
 80486e8:	e8 83 fd ff ff       	call   8048470 <__libc_start_main@plt+0x110>
 80486ed:	8d 0d a4 8f 04 08    	lea    0x8048fa4,%ecx
 80486f3:	0f be d0             	movsbl %al,%edx
 80486f6:	89 0c 24             	mov    %ecx,(%esp)
 80486f9:	89 54 24 04          	mov    %edx,0x4(%esp)
 80486fd:	e8 2e fc ff ff       	call   8048330 <printf@plt>
 8048702:	8b 0d 60 b1 04 08    	mov    0x804b160,%ecx
 8048708:	89 0c 24             	mov    %ecx,(%esp)
 804870b:	89 45 f8             	mov    %eax,-0x8(%ebp)
 804870e:	e8 2d fc ff ff       	call   8048340 <fflush@plt>
 8048713:	8b 0d 58 b0 04 08    	mov    0x804b058,%ecx
 8048719:	89 0c 24             	mov    %ecx,(%esp)
 804871c:	89 45 f4             	mov    %eax,-0xc(%ebp)
 804871f:	e8 4c fd ff ff       	call   8048470 <__libc_start_main@plt+0x110>
 8048724:	8d 0d a4 8f 04 08    	lea    0x8048fa4,%ecx
 804872a:	0f be d0             	movsbl %al,%edx
 804872d:	89 0c 24             	mov    %ecx,(%esp)
 8048730:	89 54 24 04          	mov    %edx,0x4(%esp)
 8048734:	e8 f7 fb ff ff       	call   8048330 <printf@plt>
 8048739:	8b 0d 60 b1 04 08    	mov    0x804b160,%ecx
 804873f:	89 0c 24             	mov    %ecx,(%esp)
 8048742:	89 45 f0             	mov    %eax,-0x10(%ebp)
 8048745:	e8 f6 fb ff ff       	call   8048340 <fflush@plt>
 804874a:	8b 0d 60 b0 04 08    	mov    0x804b060,%ecx
 8048750:	89 0c 24             	mov    %ecx,(%esp)
 8048753:	89 45 ec             	mov    %eax,-0x14(%ebp)
 8048756:	e8 15 fd ff ff       	call   8048470 <__libc_start_main@plt+0x110>
 804875b:	8d 0d a4 8f 04 08    	lea    0x8048fa4,%ecx
 8048761:	0f be d0             	movsbl %al,%edx
 8048764:	89 0c 24             	mov    %ecx,(%esp)
 8048767:	89 54 24 04          	mov    %edx,0x4(%esp)
 804876b:	e8 c0 fb ff ff       	call   8048330 <printf@plt>
 8048770:	8b 0d 60 b1 04 08    	mov    0x804b160,%ecx
 8048776:	89 0c 24             	mov    %ecx,(%esp)
 8048779:	89 45 e8             	mov    %eax,-0x18(%ebp)
 804877c:	e8 bf fb ff ff       	call   8048340 <fflush@plt>
 8048781:	8b 0d 68 b0 04 08    	mov    0x804b068,%ecx
 8048787:	89 0c 24             	mov    %ecx,(%esp)
 804878a:	89 45 e4             	mov    %eax,-0x1c(%ebp)
 804878d:	e8 de fc ff ff       	call   8048470 <__libc_start_main@plt+0x110>
 8048792:	8d 0d a4 8f 04 08    	lea    0x8048fa4,%ecx
 8048798:	0f be d0             	movsbl %al,%edx
 804879b:	89 0c 24             	mov    %ecx,(%esp)
 804879e:	89 54 24 04          	mov    %edx,0x4(%esp)
 80487a2:	e8 89 fb ff ff       	call   8048330 <printf@plt>
 80487a7:	8b 0d 60 b1 04 08    	mov    0x804b160,%ecx
 80487ad:	89 0c 24             	mov    %ecx,(%esp)
 80487b0:	89 45 e0             	mov    %eax,-0x20(%ebp)
 80487b3:	e8 88 fb ff ff       	call   8048340 <fflush@plt>
 80487b8:	8b 0d 70 b0 04 08    	mov    0x804b070,%ecx
 80487be:	89 0c 24             	mov    %ecx,(%esp)
 80487c1:	89 45 dc             	mov    %eax,-0x24(%ebp)
 80487c4:	e8 a7 fc ff ff       	call   8048470 <__libc_start_main@plt+0x110>
 80487c9:	8d 0d a4 8f 04 08    	lea    0x8048fa4,%ecx
 80487cf:	0f be d0             	movsbl %al,%edx
 80487d2:	89 0c 24             	mov    %ecx,(%esp)
 80487d5:	89 54 24 04          	mov    %edx,0x4(%esp)
 80487d9:	e8 52 fb ff ff       	call   8048330 <printf@plt>
 80487de:	8b 0d 60 b1 04 08    	mov    0x804b160,%ecx
 80487e4:	89 0c 24             	mov    %ecx,(%esp)
 80487e7:	89 45 d8             	mov    %eax,-0x28(%ebp)
 80487ea:	e8 51 fb ff ff       	call   8048340 <fflush@plt>
 80487ef:	8b 0d 78 b0 04 08    	mov    0x804b078,%ecx
 80487f5:	89 0c 24             	mov    %ecx,(%esp)
 80487f8:	89 45 d4             	mov    %eax,-0x2c(%ebp)
 80487fb:	e8 70 fc ff ff       	call   8048470 <__libc_start_main@plt+0x110>
 8048800:	8d 0d a4 8f 04 08    	lea    0x8048fa4,%ecx
 8048806:	0f be d0             	movsbl %al,%edx
 8048809:	89 0c 24             	mov    %ecx,(%esp)
 804880c:	89 54 24 04          	mov    %edx,0x4(%esp)
 8048810:	e8 1b fb ff ff       	call   8048330 <printf@plt>
 8048815:	8b 0d 60 b1 04 08    	mov    0x804b160,%ecx
 804881b:	89 0c 24             	mov    %ecx,(%esp)
 804881e:	89 45 d0             	mov    %eax,-0x30(%ebp)
 8048821:	e8 1a fb ff ff       	call   8048340 <fflush@plt>
 8048826:	8b 0d 80 b0 04 08    	mov    0x804b080,%ecx
 804882c:	89 0c 24             	mov    %ecx,(%esp)
 804882f:	89 45 cc             	mov    %eax,-0x34(%ebp)
 8048832:	e8 39 fc ff ff       	call   8048470 <__libc_start_main@plt+0x110>
 8048837:	8d 0d a4 8f 04 08    	lea    0x8048fa4,%ecx
 804883d:	0f be d0             	movsbl %al,%edx
 8048840:	89 0c 24             	mov    %ecx,(%esp)
 8048843:	89 54 24 04          	mov    %edx,0x4(%esp)
 8048847:	e8 e4 fa ff ff       	call   8048330 <printf@plt>
 804884c:	8b 0d 60 b1 04 08    	mov    0x804b160,%ecx
 8048852:	89 0c 24             	mov    %ecx,(%esp)
 8048855:	89 45 c8             	mov    %eax,-0x38(%ebp)
 8048858:	e8 e3 fa ff ff       	call   8048340 <fflush@plt>
 804885d:	8b 0d 88 b0 04 08    	mov    0x804b088,%ecx
 8048863:	89 0c 24             	mov    %ecx,(%esp)
 8048866:	89 45 c4             	mov    %eax,-0x3c(%ebp)
 8048869:	e8 02 fc ff ff       	call   8048470 <__libc_start_main@plt+0x110>
 804886e:	8d 0d a4 8f 04 08    	lea    0x8048fa4,%ecx
 8048874:	0f be d0             	movsbl %al,%edx
 8048877:	89 0c 24             	mov    %ecx,(%esp)
 804887a:	89 54 24 04          	mov    %edx,0x4(%esp)
 804887e:	e8 ad fa ff ff       	call   8048330 <printf@plt>
 8048883:	8b 0d 60 b1 04 08    	mov    0x804b160,%ecx
 8048889:	89 0c 24             	mov    %ecx,(%esp)
 804888c:	89 45 c0             	mov    %eax,-0x40(%ebp)
 804888f:	e8 ac fa ff ff       	call   8048340 <fflush@plt>
 8048894:	8b 0d 90 b0 04 08    	mov    0x804b090,%ecx
 804889a:	89 0c 24             	mov    %ecx,(%esp)
 804889d:	89 45 bc             	mov    %eax,-0x44(%ebp)
 80488a0:	e8 cb fb ff ff       	call   8048470 <__libc_start_main@plt+0x110>
 80488a5:	8d 0d a4 8f 04 08    	lea    0x8048fa4,%ecx
 80488ab:	0f be d0             	movsbl %al,%edx
 80488ae:	89 0c 24             	mov    %ecx,(%esp)
 80488b1:	89 54 24 04          	mov    %edx,0x4(%esp)
 80488b5:	e8 76 fa ff ff       	call   8048330 <printf@plt>
 80488ba:	8b 0d 60 b1 04 08    	mov    0x804b160,%ecx
 80488c0:	89 0c 24             	mov    %ecx,(%esp)
 80488c3:	89 45 b8             	mov    %eax,-0x48(%ebp)
 80488c6:	e8 75 fa ff ff       	call   8048340 <fflush@plt>
 80488cb:	8b 0d 98 b0 04 08    	mov    0x804b098,%ecx
 80488d1:	89 0c 24             	mov    %ecx,(%esp)
 80488d4:	89 45 b4             	mov    %eax,-0x4c(%ebp)
 80488d7:	e8 94 fb ff ff       	call   8048470 <__libc_start_main@plt+0x110>
 80488dc:	8d 0d a4 8f 04 08    	lea    0x8048fa4,%ecx
 80488e2:	0f be d0             	movsbl %al,%edx
 80488e5:	89 0c 24             	mov    %ecx,(%esp)
 80488e8:	89 54 24 04          	mov    %edx,0x4(%esp)
 80488ec:	e8 3f fa ff ff       	call   8048330 <printf@plt>
 80488f1:	8b 0d 60 b1 04 08    	mov    0x804b160,%ecx
 80488f7:	89 0c 24             	mov    %ecx,(%esp)
 80488fa:	89 45 b0             	mov    %eax,-0x50(%ebp)
 80488fd:	e8 3e fa ff ff       	call   8048340 <fflush@plt>
 8048902:	8b 0d a0 b0 04 08    	mov    0x804b0a0,%ecx
 8048908:	89 0c 24             	mov    %ecx,(%esp)
 804890b:	89 45 ac             	mov    %eax,-0x54(%ebp)
 804890e:	e8 5d fb ff ff       	call   8048470 <__libc_start_main@plt+0x110>
 8048913:	8d 0d a4 8f 04 08    	lea    0x8048fa4,%ecx
 8048919:	0f be d0             	movsbl %al,%edx
 804891c:	89 0c 24             	mov    %ecx,(%esp)
 804891f:	89 54 24 04          	mov    %edx,0x4(%esp)
 8048923:	e8 08 fa ff ff       	call   8048330 <printf@plt>
 8048928:	8b 0d 60 b1 04 08    	mov    0x804b160,%ecx
 804892e:	89 0c 24             	mov    %ecx,(%esp)
 8048931:	89 45 a8             	mov    %eax,-0x58(%ebp)
 8048934:	e8 07 fa ff ff       	call   8048340 <fflush@plt>
 8048939:	8b 0d a8 b0 04 08    	mov    0x804b0a8,%ecx
 804893f:	89 0c 24             	mov    %ecx,(%esp)
 8048942:	89 45 a4             	mov    %eax,-0x5c(%ebp)
 8048945:	e8 26 fb ff ff       	call   8048470 <__libc_start_main@plt+0x110>
 804894a:	8d 0d a4 8f 04 08    	lea    0x8048fa4,%ecx
 8048950:	0f be d0             	movsbl %al,%edx
 8048953:	89 0c 24             	mov    %ecx,(%esp)
 8048956:	89 54 24 04          	mov    %edx,0x4(%esp)
 804895a:	e8 d1 f9 ff ff       	call   8048330 <printf@plt>
 804895f:	8b 0d 60 b1 04 08    	mov    0x804b160,%ecx
 8048965:	89 0c 24             	mov    %ecx,(%esp)
 8048968:	89 45 a0             	mov    %eax,-0x60(%ebp)
 804896b:	e8 d0 f9 ff ff       	call   8048340 <fflush@plt>
 8048970:	8b 0d b0 b0 04 08    	mov    0x804b0b0,%ecx
 8048976:	89 0c 24             	mov    %ecx,(%esp)
 8048979:	89 45 9c             	mov    %eax,-0x64(%ebp)
 804897c:	e8 ef fa ff ff       	call   8048470 <__libc_start_main@plt+0x110>
 8048981:	8d 0d a4 8f 04 08    	lea    0x8048fa4,%ecx
 8048987:	0f be d0             	movsbl %al,%edx
 804898a:	89 0c 24             	mov    %ecx,(%esp)
 804898d:	89 54 24 04          	mov    %edx,0x4(%esp)
 8048991:	e8 9a f9 ff ff       	call   8048330 <printf@plt>
 8048996:	8b 0d 60 b1 04 08    	mov    0x804b160,%ecx
 804899c:	89 0c 24             	mov    %ecx,(%esp)
 804899f:	89 45 98             	mov    %eax,-0x68(%ebp)
 80489a2:	e8 99 f9 ff ff       	call   8048340 <fflush@plt>
 80489a7:	8b 0d b8 b0 04 08    	mov    0x804b0b8,%ecx
 80489ad:	89 0c 24             	mov    %ecx,(%esp)
 80489b0:	89 45 94             	mov    %eax,-0x6c(%ebp)
 80489b3:	e8 b8 fa ff ff       	call   8048470 <__libc_start_main@plt+0x110>
 80489b8:	8d 0d a4 8f 04 08    	lea    0x8048fa4,%ecx
 80489be:	0f be d0             	movsbl %al,%edx
 80489c1:	89 0c 24             	mov    %ecx,(%esp)
 80489c4:	89 54 24 04          	mov    %edx,0x4(%esp)
 80489c8:	e8 63 f9 ff ff       	call   8048330 <printf@plt>
 80489cd:	8b 0d 60 b1 04 08    	mov    0x804b160,%ecx
 80489d3:	89 0c 24             	mov    %ecx,(%esp)
 80489d6:	89 45 90             	mov    %eax,-0x70(%ebp)
 80489d9:	e8 62 f9 ff ff       	call   8048340 <fflush@plt>
 80489de:	8b 0d c0 b0 04 08    	mov    0x804b0c0,%ecx
 80489e4:	89 0c 24             	mov    %ecx,(%esp)
 80489e7:	89 45 8c             	mov    %eax,-0x74(%ebp)
 80489ea:	e8 81 fa ff ff       	call   8048470 <__libc_start_main@plt+0x110>
 80489ef:	8d 0d a4 8f 04 08    	lea    0x8048fa4,%ecx
 80489f5:	0f be d0             	movsbl %al,%edx
 80489f8:	89 0c 24             	mov    %ecx,(%esp)
 80489fb:	89 54 24 04          	mov    %edx,0x4(%esp)
 80489ff:	e8 2c f9 ff ff       	call   8048330 <printf@plt>
 8048a04:	8b 0d 60 b1 04 08    	mov    0x804b160,%ecx
 8048a0a:	89 0c 24             	mov    %ecx,(%esp)
 8048a0d:	89 45 88             	mov    %eax,-0x78(%ebp)
 8048a10:	e8 2b f9 ff ff       	call   8048340 <fflush@plt>
 8048a15:	8b 0d c8 b0 04 08    	mov    0x804b0c8,%ecx
 8048a1b:	89 0c 24             	mov    %ecx,(%esp)
 8048a1e:	89 45 84             	mov    %eax,-0x7c(%ebp)
 8048a21:	e8 4a fa ff ff       	call   8048470 <__libc_start_main@plt+0x110>
 8048a26:	8d 0d a4 8f 04 08    	lea    0x8048fa4,%ecx
 8048a2c:	0f be d0             	movsbl %al,%edx
 8048a2f:	89 0c 24             	mov    %ecx,(%esp)
 8048a32:	89 54 24 04          	mov    %edx,0x4(%esp)
 8048a36:	e8 f5 f8 ff ff       	call   8048330 <printf@plt>
 8048a3b:	8b 0d 60 b1 04 08    	mov    0x804b160,%ecx
 8048a41:	89 0c 24             	mov    %ecx,(%esp)
 8048a44:	89 45 80             	mov    %eax,-0x80(%ebp)
 8048a47:	e8 f4 f8 ff ff       	call   8048340 <fflush@plt>
 8048a4c:	8b 0d d0 b0 04 08    	mov    0x804b0d0,%ecx
 8048a52:	89 0c 24             	mov    %ecx,(%esp)
 8048a55:	89 85 7c ff ff ff    	mov    %eax,-0x84(%ebp)
 8048a5b:	e8 10 fa ff ff       	call   8048470 <__libc_start_main@plt+0x110>
 8048a60:	8d 0d a4 8f 04 08    	lea    0x8048fa4,%ecx
 8048a66:	0f be d0             	movsbl %al,%edx
 8048a69:	89 0c 24             	mov    %ecx,(%esp)
 8048a6c:	89 54 24 04          	mov    %edx,0x4(%esp)
 8048a70:	e8 bb f8 ff ff       	call   8048330 <printf@plt>
 8048a75:	8b 0d 60 b1 04 08    	mov    0x804b160,%ecx
 8048a7b:	89 0c 24             	mov    %ecx,(%esp)
 8048a7e:	89 85 78 ff ff ff    	mov    %eax,-0x88(%ebp)
 8048a84:	e8 b7 f8 ff ff       	call   8048340 <fflush@plt>
 8048a89:	8b 0d d8 b0 04 08    	mov    0x804b0d8,%ecx
 8048a8f:	89 0c 24             	mov    %ecx,(%esp)
 8048a92:	89 85 74 ff ff ff    	mov    %eax,-0x8c(%ebp)
 8048a98:	e8 d3 f9 ff ff       	call   8048470 <__libc_start_main@plt+0x110>
 8048a9d:	8d 0d a4 8f 04 08    	lea    0x8048fa4,%ecx
 8048aa3:	0f be d0             	movsbl %al,%edx
 8048aa6:	89 0c 24             	mov    %ecx,(%esp)
 8048aa9:	89 54 24 04          	mov    %edx,0x4(%esp)
 8048aad:	e8 7e f8 ff ff       	call   8048330 <printf@plt>
 8048ab2:	8b 0d 60 b1 04 08    	mov    0x804b160,%ecx
 8048ab8:	89 0c 24             	mov    %ecx,(%esp)
 8048abb:	89 85 70 ff ff ff    	mov    %eax,-0x90(%ebp)
 8048ac1:	e8 7a f8 ff ff       	call   8048340 <fflush@plt>
 8048ac6:	8b 0d 68 b1 04 08    	mov    0x804b168,%ecx
 8048acc:	89 0c 24             	mov    %ecx,(%esp)
 8048acf:	89 85 6c ff ff ff    	mov    %eax,-0x94(%ebp)
 8048ad5:	e8 96 f9 ff ff       	call   8048470 <__libc_start_main@plt+0x110>
 8048ada:	8d 0d a4 8f 04 08    	lea    0x8048fa4,%ecx
 8048ae0:	0f be d0             	movsbl %al,%edx
 8048ae3:	89 0c 24             	mov    %ecx,(%esp)
 8048ae6:	89 54 24 04          	mov    %edx,0x4(%esp)
 8048aea:	e8 41 f8 ff ff       	call   8048330 <printf@plt>
 8048aef:	8b 0d 60 b1 04 08    	mov    0x804b160,%ecx
 8048af5:	89 0c 24             	mov    %ecx,(%esp)
 8048af8:	89 85 68 ff ff ff    	mov    %eax,-0x98(%ebp)
 8048afe:	e8 3d f8 ff ff       	call   8048340 <fflush@plt>
 8048b03:	8b 0d e4 b0 04 08    	mov    0x804b0e4,%ecx
 8048b09:	89 0c 24             	mov    %ecx,(%esp)
 8048b0c:	89 85 64 ff ff ff    	mov    %eax,-0x9c(%ebp)
 8048b12:	e8 59 f9 ff ff       	call   8048470 <__libc_start_main@plt+0x110>
 8048b17:	8d 0d a4 8f 04 08    	lea    0x8048fa4,%ecx
 8048b1d:	0f be d0             	movsbl %al,%edx
 8048b20:	89 0c 24             	mov    %ecx,(%esp)
 8048b23:	89 54 24 04          	mov    %edx,0x4(%esp)
 8048b27:	e8 04 f8 ff ff       	call   8048330 <printf@plt>
 8048b2c:	8b 0d 60 b1 04 08    	mov    0x804b160,%ecx
 8048b32:	89 0c 24             	mov    %ecx,(%esp)
 8048b35:	89 85 60 ff ff ff    	mov    %eax,-0xa0(%ebp)
 8048b3b:	e8 00 f8 ff ff       	call   8048340 <fflush@plt>
 8048b40:	8b 0d 6c b1 04 08    	mov    0x804b16c,%ecx
 8048b46:	89 0c 24             	mov    %ecx,(%esp)
 8048b49:	89 85 5c ff ff ff    	mov    %eax,-0xa4(%ebp)
 8048b4f:	e8 1c f9 ff ff       	call   8048470 <__libc_start_main@plt+0x110>
 8048b54:	8d 0d a4 8f 04 08    	lea    0x8048fa4,%ecx
 8048b5a:	0f be d0             	movsbl %al,%edx
 8048b5d:	89 0c 24             	mov    %ecx,(%esp)
 8048b60:	89 54 24 04          	mov    %edx,0x4(%esp)
 8048b64:	e8 c7 f7 ff ff       	call   8048330 <printf@plt>
 8048b69:	8b 0d 60 b1 04 08    	mov    0x804b160,%ecx
 8048b6f:	89 0c 24             	mov    %ecx,(%esp)
 8048b72:	89 85 58 ff ff ff    	mov    %eax,-0xa8(%ebp)
 8048b78:	e8 c3 f7 ff ff       	call   8048340 <fflush@plt>
 8048b7d:	8b 0d f0 b0 04 08    	mov    0x804b0f0,%ecx
 8048b83:	89 0c 24             	mov    %ecx,(%esp)
 8048b86:	89 85 54 ff ff ff    	mov    %eax,-0xac(%ebp)
 8048b8c:	e8 df f8 ff ff       	call   8048470 <__libc_start_main@plt+0x110>
 8048b91:	8d 0d a4 8f 04 08    	lea    0x8048fa4,%ecx
 8048b97:	0f be d0             	movsbl %al,%edx
 8048b9a:	89 0c 24             	mov    %ecx,(%esp)
 8048b9d:	89 54 24 04          	mov    %edx,0x4(%esp)
 8048ba1:	e8 8a f7 ff ff       	call   8048330 <printf@plt>
 8048ba6:	8b 0d 60 b1 04 08    	mov    0x804b160,%ecx
 8048bac:	89 0c 24             	mov    %ecx,(%esp)
 8048baf:	89 85 50 ff ff ff    	mov    %eax,-0xb0(%ebp)
 8048bb5:	e8 86 f7 ff ff       	call   8048340 <fflush@plt>
 8048bba:	8b 0d f8 b0 04 08    	mov    0x804b0f8,%ecx
 8048bc0:	89 0c 24             	mov    %ecx,(%esp)
 8048bc3:	89 85 4c ff ff ff    	mov    %eax,-0xb4(%ebp)
 8048bc9:	e8 a2 f8 ff ff       	call   8048470 <__libc_start_main@plt+0x110>
 8048bce:	8d 0d a4 8f 04 08    	lea    0x8048fa4,%ecx
 8048bd4:	0f be d0             	movsbl %al,%edx
 8048bd7:	89 0c 24             	mov    %ecx,(%esp)
 8048bda:	89 54 24 04          	mov    %edx,0x4(%esp)
 8048bde:	e8 4d f7 ff ff       	call   8048330 <printf@plt>
 8048be3:	8b 0d 60 b1 04 08    	mov    0x804b160,%ecx
 8048be9:	89 0c 24             	mov    %ecx,(%esp)
 8048bec:	89 85 48 ff ff ff    	mov    %eax,-0xb8(%ebp)
 8048bf2:	e8 49 f7 ff ff       	call   8048340 <fflush@plt>
 8048bf7:	8b 0d 70 b1 04 08    	mov    0x804b170,%ecx
 8048bfd:	89 0c 24             	mov    %ecx,(%esp)
 8048c00:	89 85 44 ff ff ff    	mov    %eax,-0xbc(%ebp)
 8048c06:	e8 65 f8 ff ff       	call   8048470 <__libc_start_main@plt+0x110>
 8048c0b:	8d 0d a4 8f 04 08    	lea    0x8048fa4,%ecx
 8048c11:	0f be d0             	movsbl %al,%edx
 8048c14:	89 0c 24             	mov    %ecx,(%esp)
 8048c17:	89 54 24 04          	mov    %edx,0x4(%esp)
 8048c1b:	e8 10 f7 ff ff       	call   8048330 <printf@plt>
 8048c20:	8b 0d 60 b1 04 08    	mov    0x804b160,%ecx
 8048c26:	89 0c 24             	mov    %ecx,(%esp)
 8048c29:	89 85 40 ff ff ff    	mov    %eax,-0xc0(%ebp)
 8048c2f:	e8 0c f7 ff ff       	call   8048340 <fflush@plt>
 8048c34:	8b 0d 04 b1 04 08    	mov    0x804b104,%ecx
 8048c3a:	89 0c 24             	mov    %ecx,(%esp)
 8048c3d:	89 85 3c ff ff ff    	mov    %eax,-0xc4(%ebp)
 8048c43:	e8 28 f8 ff ff       	call   8048470 <__libc_start_main@plt+0x110>
 8048c48:	8d 0d a4 8f 04 08    	lea    0x8048fa4,%ecx
 8048c4e:	0f be d0             	movsbl %al,%edx
 8048c51:	89 0c 24             	mov    %ecx,(%esp)
 8048c54:	89 54 24 04          	mov    %edx,0x4(%esp)
 8048c58:	e8 d3 f6 ff ff       	call   8048330 <printf@plt>
 8048c5d:	8b 0d 60 b1 04 08    	mov    0x804b160,%ecx
 8048c63:	89 0c 24             	mov    %ecx,(%esp)
 8048c66:	89 85 38 ff ff ff    	mov    %eax,-0xc8(%ebp)
 8048c6c:	e8 cf f6 ff ff       	call   8048340 <fflush@plt>
 8048c71:	8b 0d 74 b1 04 08    	mov    0x804b174,%ecx
 8048c77:	89 0c 24             	mov    %ecx,(%esp)
 8048c7a:	89 85 34 ff ff ff    	mov    %eax,-0xcc(%ebp)
 8048c80:	e8 eb f7 ff ff       	call   8048470 <__libc_start_main@plt+0x110>
 8048c85:	8d 0d a4 8f 04 08    	lea    0x8048fa4,%ecx
 8048c8b:	0f be d0             	movsbl %al,%edx
 8048c8e:	89 0c 24             	mov    %ecx,(%esp)
 8048c91:	89 54 24 04          	mov    %edx,0x4(%esp)
 8048c95:	e8 96 f6 ff ff       	call   8048330 <printf@plt>
 8048c9a:	8b 0d 60 b1 04 08    	mov    0x804b160,%ecx
 8048ca0:	89 0c 24             	mov    %ecx,(%esp)
 8048ca3:	89 85 30 ff ff ff    	mov    %eax,-0xd0(%ebp)
 8048ca9:	e8 92 f6 ff ff       	call   8048340 <fflush@plt>
 8048cae:	8b 0d 10 b1 04 08    	mov    0x804b110,%ecx
 8048cb4:	89 0c 24             	mov    %ecx,(%esp)
 8048cb7:	89 85 2c ff ff ff    	mov    %eax,-0xd4(%ebp)
 8048cbd:	e8 ae f7 ff ff       	call   8048470 <__libc_start_main@plt+0x110>
 8048cc2:	8d 0d a4 8f 04 08    	lea    0x8048fa4,%ecx
 8048cc8:	0f be d0             	movsbl %al,%edx
 8048ccb:	89 0c 24             	mov    %ecx,(%esp)
 8048cce:	89 54 24 04          	mov    %edx,0x4(%esp)
 8048cd2:	e8 59 f6 ff ff       	call   8048330 <printf@plt>
 8048cd7:	8b 0d 60 b1 04 08    	mov    0x804b160,%ecx
 8048cdd:	89 0c 24             	mov    %ecx,(%esp)
 8048ce0:	89 85 28 ff ff ff    	mov    %eax,-0xd8(%ebp)
 8048ce6:	e8 55 f6 ff ff       	call   8048340 <fflush@plt>
 8048ceb:	8b 0d 18 b1 04 08    	mov    0x804b118,%ecx
 8048cf1:	89 0c 24             	mov    %ecx,(%esp)
 8048cf4:	89 85 24 ff ff ff    	mov    %eax,-0xdc(%ebp)
 8048cfa:	e8 71 f7 ff ff       	call   8048470 <__libc_start_main@plt+0x110>
 8048cff:	8d 0d a4 8f 04 08    	lea    0x8048fa4,%ecx
 8048d05:	0f be d0             	movsbl %al,%edx
 8048d08:	89 0c 24             	mov    %ecx,(%esp)
 8048d0b:	89 54 24 04          	mov    %edx,0x4(%esp)
 8048d0f:	e8 1c f6 ff ff       	call   8048330 <printf@plt>
 8048d14:	8b 0d 60 b1 04 08    	mov    0x804b160,%ecx
 8048d1a:	89 0c 24             	mov    %ecx,(%esp)
 8048d1d:	89 85 20 ff ff ff    	mov    %eax,-0xe0(%ebp)
 8048d23:	e8 18 f6 ff ff       	call   8048340 <fflush@plt>
 8048d28:	8b 0d 78 b1 04 08    	mov    0x804b178,%ecx
 8048d2e:	89 0c 24             	mov    %ecx,(%esp)
 8048d31:	89 85 1c ff ff ff    	mov    %eax,-0xe4(%ebp)
 8048d37:	e8 34 f7 ff ff       	call   8048470 <__libc_start_main@plt+0x110>
 8048d3c:	8d 0d a4 8f 04 08    	lea    0x8048fa4,%ecx
 8048d42:	0f be d0             	movsbl %al,%edx
 8048d45:	89 0c 24             	mov    %ecx,(%esp)
 8048d48:	89 54 24 04          	mov    %edx,0x4(%esp)
 8048d4c:	e8 df f5 ff ff       	call   8048330 <printf@plt>
 8048d51:	8b 0d 60 b1 04 08    	mov    0x804b160,%ecx
 8048d57:	89 0c 24             	mov    %ecx,(%esp)
 8048d5a:	89 85 18 ff ff ff    	mov    %eax,-0xe8(%ebp)
 8048d60:	e8 db f5 ff ff       	call   8048340 <fflush@plt>
 8048d65:	8b 0d 24 b1 04 08    	mov    0x804b124,%ecx
 8048d6b:	89 0c 24             	mov    %ecx,(%esp)
 8048d6e:	89 85 14 ff ff ff    	mov    %eax,-0xec(%ebp)
 8048d74:	e8 f7 f6 ff ff       	call   8048470 <__libc_start_main@plt+0x110>
 8048d79:	8d 0d a4 8f 04 08    	lea    0x8048fa4,%ecx
 8048d7f:	0f be d0             	movsbl %al,%edx
 8048d82:	89 0c 24             	mov    %ecx,(%esp)
 8048d85:	89 54 24 04          	mov    %edx,0x4(%esp)
 8048d89:	e8 a2 f5 ff ff       	call   8048330 <printf@plt>
 8048d8e:	8b 0d 60 b1 04 08    	mov    0x804b160,%ecx
 8048d94:	89 0c 24             	mov    %ecx,(%esp)
 8048d97:	89 85 10 ff ff ff    	mov    %eax,-0xf0(%ebp)
 8048d9d:	e8 9e f5 ff ff       	call   8048340 <fflush@plt>
 8048da2:	8b 0d 2c b1 04 08    	mov    0x804b12c,%ecx
 8048da8:	89 0c 24             	mov    %ecx,(%esp)
 8048dab:	89 85 0c ff ff ff    	mov    %eax,-0xf4(%ebp)
 8048db1:	e8 ba f6 ff ff       	call   8048470 <__libc_start_main@plt+0x110>
 8048db6:	8d 0d a4 8f 04 08    	lea    0x8048fa4,%ecx
 8048dbc:	0f be d0             	movsbl %al,%edx
 8048dbf:	89 0c 24             	mov    %ecx,(%esp)
 8048dc2:	89 54 24 04          	mov    %edx,0x4(%esp)
 8048dc6:	e8 65 f5 ff ff       	call   8048330 <printf@plt>
 8048dcb:	8b 0d 60 b1 04 08    	mov    0x804b160,%ecx
 8048dd1:	89 0c 24             	mov    %ecx,(%esp)
 8048dd4:	89 85 08 ff ff ff    	mov    %eax,-0xf8(%ebp)
 8048dda:	e8 61 f5 ff ff       	call   8048340 <fflush@plt>
 8048ddf:	8b 0d 34 b1 04 08    	mov    0x804b134,%ecx
 8048de5:	89 0c 24             	mov    %ecx,(%esp)
 8048de8:	89 85 04 ff ff ff    	mov    %eax,-0xfc(%ebp)
 8048dee:	e8 7d f6 ff ff       	call   8048470 <__libc_start_main@plt+0x110>
 8048df3:	8d 0d a4 8f 04 08    	lea    0x8048fa4,%ecx
 8048df9:	0f be d0             	movsbl %al,%edx
 8048dfc:	89 0c 24             	mov    %ecx,(%esp)
 8048dff:	89 54 24 04          	mov    %edx,0x4(%esp)
 8048e03:	e8 28 f5 ff ff       	call   8048330 <printf@plt>
 8048e08:	8b 0d 60 b1 04 08    	mov    0x804b160,%ecx
 8048e0e:	89 0c 24             	mov    %ecx,(%esp)
 8048e11:	89 85 00 ff ff ff    	mov    %eax,-0x100(%ebp)
 8048e17:	e8 24 f5 ff ff       	call   8048340 <fflush@plt>
 8048e1c:	8b 0d 3c b1 04 08    	mov    0x804b13c,%ecx
 8048e22:	89 0c 24             	mov    %ecx,(%esp)
 8048e25:	89 85 fc fe ff ff    	mov    %eax,-0x104(%ebp)
 8048e2b:	e8 40 f6 ff ff       	call   8048470 <__libc_start_main@plt+0x110>
 8048e30:	8d 0d a4 8f 04 08    	lea    0x8048fa4,%ecx
 8048e36:	0f be d0             	movsbl %al,%edx
 8048e39:	89 0c 24             	mov    %ecx,(%esp)
 8048e3c:	89 54 24 04          	mov    %edx,0x4(%esp)
 8048e40:	e8 eb f4 ff ff       	call   8048330 <printf@plt>
 8048e45:	8b 0d 60 b1 04 08    	mov    0x804b160,%ecx
 8048e4b:	89 0c 24             	mov    %ecx,(%esp)
 8048e4e:	89 85 f8 fe ff ff    	mov    %eax,-0x108(%ebp)
 8048e54:	e8 e7 f4 ff ff       	call   8048340 <fflush@plt>
 8048e59:	8b 0d 44 b1 04 08    	mov    0x804b144,%ecx
 8048e5f:	89 0c 24             	mov    %ecx,(%esp)
 8048e62:	89 85 f4 fe ff ff    	mov    %eax,-0x10c(%ebp)
 8048e68:	e8 03 f6 ff ff       	call   8048470 <__libc_start_main@plt+0x110>
 8048e6d:	8d 0d a4 8f 04 08    	lea    0x8048fa4,%ecx
 8048e73:	0f be d0             	movsbl %al,%edx
 8048e76:	89 0c 24             	mov    %ecx,(%esp)
 8048e79:	89 54 24 04          	mov    %edx,0x4(%esp)
 8048e7d:	e8 ae f4 ff ff       	call   8048330 <printf@plt>
 8048e82:	8b 0d 60 b1 04 08    	mov    0x804b160,%ecx
 8048e88:	89 0c 24             	mov    %ecx,(%esp)
 8048e8b:	89 85 f0 fe ff ff    	mov    %eax,-0x110(%ebp)
 8048e91:	e8 aa f4 ff ff       	call   8048340 <fflush@plt>
 8048e96:	8d 0d a7 8f 04 08    	lea    0x8048fa7,%ecx
 8048e9c:	89 0c 24             	mov    %ecx,(%esp)
 8048e9f:	89 85 ec fe ff ff    	mov    %eax,-0x114(%ebp)
 8048ea5:	e8 86 f4 ff ff       	call   8048330 <printf@plt>
 8048eaa:	b9 00 00 00 00       	mov    $0x0,%ecx
 8048eaf:	89 85 e8 fe ff ff    	mov    %eax,-0x118(%ebp)
 8048eb5:	89 c8                	mov    %ecx,%eax
 8048eb7:	81 c4 28 01 00 00    	add    $0x128,%esp
 8048ebd:	5d                   	pop    %ebp
 8048ebe:	c3                   	ret    
 8048ebf:	90                   	nop
 8048ec0:	55                   	push   %ebp
 8048ec1:	57                   	push   %edi
 8048ec2:	31 ff                	xor    %edi,%edi
 8048ec4:	56                   	push   %esi
 8048ec5:	53                   	push   %ebx
 8048ec6:	e8 d5 f4 ff ff       	call   80483a0 <__libc_start_main@plt+0x40>
 8048ecb:	81 c3 35 21 00 00    	add    $0x2135,%ebx
 8048ed1:	83 ec 1c             	sub    $0x1c,%esp
 8048ed4:	8b 6c 24 30          	mov    0x30(%esp),%ebp
 8048ed8:	8d b3 0c ff ff ff    	lea    -0xf4(%ebx),%esi
 8048ede:	e8 15 f4 ff ff       	call   80482f8 <printf@plt-0x38>
 8048ee3:	8d 83 08 ff ff ff    	lea    -0xf8(%ebx),%eax
 8048ee9:	29 c6                	sub    %eax,%esi
 8048eeb:	c1 fe 02             	sar    $0x2,%esi
 8048eee:	85 f6                	test   %esi,%esi
 8048ef0:	74 27                	je     8048f19 <main+0x849>
 8048ef2:	8d b6 00 00 00 00    	lea    0x0(%esi),%esi
 8048ef8:	8b 44 24 38          	mov    0x38(%esp),%eax
 8048efc:	89 2c 24             	mov    %ebp,(%esp)
 8048eff:	89 44 24 08          	mov    %eax,0x8(%esp)
 8048f03:	8b 44 24 34          	mov    0x34(%esp),%eax
 8048f07:	89 44 24 04          	mov    %eax,0x4(%esp)
 8048f0b:	ff 94 bb 08 ff ff ff 	call   *-0xf8(%ebx,%edi,4)
 8048f12:	83 c7 01             	add    $0x1,%edi
 8048f15:	39 f7                	cmp    %esi,%edi
 8048f17:	75 df                	jne    8048ef8 <main+0x828>
 8048f19:	83 c4 1c             	add    $0x1c,%esp
 8048f1c:	5b                   	pop    %ebx
 8048f1d:	5e                   	pop    %esi
 8048f1e:	5f                   	pop    %edi
 8048f1f:	5d                   	pop    %ebp
 8048f20:	c3                   	ret    
 8048f21:	eb 0d                	jmp    8048f30 <main+0x860>
 8048f23:	90                   	nop
 8048f24:	90                   	nop
 8048f25:	90                   	nop
 8048f26:	90                   	nop
 8048f27:	90                   	nop
 8048f28:	90                   	nop
 8048f29:	90                   	nop
 8048f2a:	90                   	nop
 8048f2b:	90                   	nop
 8048f2c:	90                   	nop
 8048f2d:	90                   	nop
 8048f2e:	90                   	nop
 8048f2f:	90                   	nop
 8048f30:	f3 c3                	repz ret 

Disassembly of section .fini:

08048f34 <.fini>:
 8048f34:	53                   	push   %ebx
 8048f35:	83 ec 08             	sub    $0x8,%esp
 8048f38:	e8 63 f4 ff ff       	call   80483a0 <__libc_start_main@plt+0x40>
 8048f3d:	81 c3 c3 20 00 00    	add    $0x20c3,%ebx
 8048f43:	83 c4 08             	add    $0x8,%esp
 8048f46:	5b                   	pop    %ebx
 8048f47:	c3                   	ret    
